target datalayout = "e-m:e-p270:32:32-p271:32:32-p272:64:64-i64:64-i128:128-f80:128-n8:16:32:64-S128"
target triple = "x86_64-pc-linux-gnu"

%struct.H5FL_seq_head_t = type { %struct.H5FL_blk_head_t, i64 }
%struct.H5FL_blk_head_t = type { i8, i32, i32, i64, ptr, ptr }
%struct.H5FL_reg_head_t = type { i8, i32, i32, ptr, i64, ptr }
%struct.H5B2_hdr_t = type { %struct.H5C_cache_entry_t, %struct.H5B2_node_ptr_t, i8, i8, i32, i32, i16, i8, ptr, i64, i64, i64, i64, i8, i8, i8, ptr, ptr, ptr, ptr, ptr, ptr, ptr, i8, ptr, ptr, i64, ptr, ptr }
%struct.H5C_cache_entry_t = type { ptr, i64, i64, ptr, i8, ptr, i8, i8, i8, i8, i32, i8, i8, i8, i8, i8, i32, ptr, i32, i32, i32, i32, i32, i8, i8, ptr, ptr, ptr, ptr, ptr, ptr, i8, i32, i8, i64, ptr, i64, i64, i32, i8, i32, i32, i8, ptr, ptr, ptr }
%struct.H5B2_node_ptr_t = type { i64, i16, i64 }
%struct.H5B2_node_info_t = type { i32, i32, i32, i64, i8, ptr, ptr }
%struct.H5B2_class_t = type { i32, ptr, i64, ptr, ptr, ptr, ptr, ptr, ptr, ptr }

@H5_H5B2_node_info_t_seq_free_list = global %struct.H5FL_seq_head_t { %struct.H5FL_blk_head_t { i8 0, i32 0, i32 0, i64 0, ptr @.str, ptr null }, i64 48 }, align 8
@H5_node_page_blk_free_list = internal global %struct.H5FL_blk_head_t { i8 0, i32 0, i32 0, i64 0, ptr @.str.28, ptr null }, align 8
@.str.1 = private unnamed_addr constant [101 x i8] c"generated/home/dtcxzyw/WorkSpace/Projects/compilers/llvm-opt-benchmark/bench/hdf5/hdf5/src/H5B2hdr.c\00", align 1
@H5E_BTREE_g = external global i64, align 8
@H5_size_t_seq_free_list = internal global %struct.H5FL_seq_head_t { %struct.H5FL_blk_head_t { i8 0, i32 0, i32 0, i64 0, ptr @.str.29, ptr null }, i64 8 }, align 8
@H5_H5B2_hdr_t_reg_free_list = internal global %struct.H5FL_reg_head_t { i8 0, i32 0, i32 0, ptr @.str.30, i64 440, ptr null }, align 8
@H5E_CANTRELEASE_g = external global i64, align 8
@__func__.H5B2__hdr_free = private unnamed_addr constant [15 x i8] c"H5B2__hdr_free\00", align 1
@.str.23 = private unnamed_addr constant [48 x i8] c"can't destroy v2 B-tree client callback context\00", align 1
@.str.24 = private unnamed_addr constant [49 x i8] c"can't destroy node's native record block factory\00", align 1
@.str.25 = private unnamed_addr constant [48 x i8] c"can't destroy node's node pointer block factory\00", align 1
@.str.26 = private unnamed_addr constant [40 x i8] c"unable to destroy v2 B-tree 'top' proxy\00", align 1

; Function Attrs: nounwind uwtable
define i32 @H5B2__hdr_free(ptr noundef %0) #0 {
  %2 = alloca ptr, align 8
  %3 = alloca i32, align 4
  %4 = alloca i8, align 1
  %5 = alloca i32, align 4
  store ptr %0, ptr %2, align 8
  store i32 0, ptr %3, align 4
  store i8 0, ptr %4, align 1
  %6 = load ptr, ptr %2, align 8
  %7 = getelementptr inbounds %struct.H5B2_hdr_t, ptr %6, i32 0, i32 28
  %8 = load ptr, ptr %7, align 8
  %9 = icmp ne ptr %8, null
  br i1 %9, label %10, label %39

10:                                               ; preds = %1
  %11 = load ptr, ptr %2, align 8
  %12 = getelementptr inbounds %struct.H5B2_hdr_t, ptr %11, i32 0, i32 27
  %13 = load ptr, ptr %12, align 8
  %14 = getelementptr inbounds %struct.H5B2_class_t, ptr %13, i32 0, i32 4
  %15 = load ptr, ptr %14, align 8
  %16 = load ptr, ptr %2, align 8
  %17 = getelementptr inbounds %struct.H5B2_hdr_t, ptr %16, i32 0, i32 28
  %18 = load ptr, ptr %17, align 8
  %19 = call i32 %15(ptr noundef %18)
  %20 = icmp slt i32 %19, 0
  br i1 %20, label %21, label %36

21:                                               ; preds = %10
  br label %22

22:                                               ; preds = %21
  br label %23

23:                                               ; preds = %22
  br label %24

24:                                               ; preds = %23
  %25 = load i64, ptr @H5E_BTREE_g, align 8
  %26 = load i64, ptr @H5E_CANTRELEASE_g, align 8
  %27 = call i32 (ptr, ptr, i32, i64, i64, ptr, ...) @H5E_printf_stack(ptr noundef @.str.1, ptr noundef @__func__.H5B2__hdr_free, i32 noundef 581, i64 noundef %25, i64 noundef %26, ptr noundef @.str.23)
  br label %28

28:                                               ; preds = %24
  store i8 1, ptr %4, align 1
  %29 = load i8, ptr %4, align 1
  %30 = trunc i8 %29 to i1
  %31 = zext i1 %30 to i8
  store i8 %31, ptr %4, align 1
  br label %32

32:                                               ; preds = %28
  br label %33

33:                                               ; preds = %32
  store i32 -1, ptr %3, align 4
  br label %218

34:                                               ; No predecessors!
  br label %35

35:                                               ; preds = %34
  br label %36

36:                                               ; preds = %35, %10
  %37 = load ptr, ptr %2, align 8
  %38 = getelementptr inbounds %struct.H5B2_hdr_t, ptr %37, i32 0, i32 28
  store ptr null, ptr %38, align 8
  br label %39

39:                                               ; preds = %36, %1
  %40 = load ptr, ptr %2, align 8
  %41 = getelementptr inbounds %struct.H5B2_hdr_t, ptr %40, i32 0, i32 18
  %42 = load ptr, ptr %41, align 8
  %43 = icmp ne ptr %42, null
  br i1 %43, label %44, label %51

44:                                               ; preds = %39
  %45 = load ptr, ptr %2, align 8
  %46 = getelementptr inbounds %struct.H5B2_hdr_t, ptr %45, i32 0, i32 18
  %47 = load ptr, ptr %46, align 8
  %48 = call ptr @H5FL_blk_free(ptr noundef @H5_node_page_blk_free_list, ptr noundef %47)
  %49 = load ptr, ptr %2, align 8
  %50 = getelementptr inbounds %struct.H5B2_hdr_t, ptr %49, i32 0, i32 18
  store ptr %48, ptr %50, align 8
  br label %51

51:                                               ; preds = %44, %39
  %52 = load ptr, ptr %2, align 8
  %53 = getelementptr inbounds %struct.H5B2_hdr_t, ptr %52, i32 0, i32 19
  %54 = load ptr, ptr %53, align 8
  %55 = icmp ne ptr %54, null
  br i1 %55, label %56, label %63

56:                                               ; preds = %51
  %57 = load ptr, ptr %2, align 8
  %58 = getelementptr inbounds %struct.H5B2_hdr_t, ptr %57, i32 0, i32 19
  %59 = load ptr, ptr %58, align 8
  %60 = call ptr @H5FL_seq_free(ptr noundef @H5_size_t_seq_free_list, ptr noundef %59)
  %61 = load ptr, ptr %2, align 8
  %62 = getelementptr inbounds %struct.H5B2_hdr_t, ptr %61, i32 0, i32 19
  store ptr %60, ptr %62, align 8
  br label %63

63:                                               ; preds = %56, %51
  %64 = load ptr, ptr %2, align 8
  %65 = getelementptr inbounds %struct.H5B2_hdr_t, ptr %64, i32 0, i32 20
  %66 = load ptr, ptr %65, align 8
  %67 = icmp ne ptr %66, null
  br i1 %67, label %68, label %162

68:                                               ; preds = %63
  store i32 0, ptr %5, align 4
  br label %69

69:                                               ; preds = %152, %68
  %70 = load i32, ptr %5, align 4
  %71 = load ptr, ptr %2, align 8
  %72 = getelementptr inbounds %struct.H5B2_hdr_t, ptr %71, i32 0, i32 6
  %73 = load i16, ptr %72, align 4
  %74 = zext i16 %73 to i32
  %75 = add nsw i32 %74, 1
  %76 = icmp ult i32 %70, %75
  br i1 %76, label %77, label %155

77:                                               ; preds = %69
  %78 = load ptr, ptr %2, align 8
  %79 = getelementptr inbounds %struct.H5B2_hdr_t, ptr %78, i32 0, i32 20
  %80 = load ptr, ptr %79, align 8
  %81 = load i32, ptr %5, align 4
  %82 = zext i32 %81 to i64
  %83 = getelementptr inbounds %struct.H5B2_node_info_t, ptr %80, i64 %82
  %84 = getelementptr inbounds %struct.H5B2_node_info_t, ptr %83, i32 0, i32 5
  %85 = load ptr, ptr %84, align 8
  %86 = icmp ne ptr %85, null
  br i1 %86, label %87, label %114

87:                                               ; preds = %77
  %88 = load ptr, ptr %2, align 8
  %89 = getelementptr inbounds %struct.H5B2_hdr_t, ptr %88, i32 0, i32 20
  %90 = load ptr, ptr %89, align 8
  %91 = load i32, ptr %5, align 4
  %92 = zext i32 %91 to i64
  %93 = getelementptr inbounds %struct.H5B2_node_info_t, ptr %90, i64 %92
  %94 = getelementptr inbounds %struct.H5B2_node_info_t, ptr %93, i32 0, i32 5
  %95 = load ptr, ptr %94, align 8
  %96 = call i32 @H5FL_fac_term(ptr noundef %95)
  %97 = icmp slt i32 %96, 0
  br i1 %97, label %98, label %113

98:                                               ; preds = %87
  br label %99

99:                                               ; preds = %98
  br label %100

100:                                              ; preds = %99
  br label %101

101:                                              ; preds = %100
  %102 = load i64, ptr @H5E_BTREE_g, align 8
  %103 = load i64, ptr @H5E_CANTRELEASE_g, align 8
  %104 = call i32 (ptr, ptr, i32, i64, i64, ptr, ...) @H5E_printf_stack(ptr noundef @.str.1, ptr noundef @__func__.H5B2__hdr_free, i32 noundef 602, i64 noundef %102, i64 noundef %103, ptr noundef @.str.24)
  br label %105

105:                                              ; preds = %101
  store i8 1, ptr %4, align 1
  %106 = load i8, ptr %4, align 1
  %107 = trunc i8 %106 to i1
  %108 = zext i1 %107 to i8
  store i8 %108, ptr %4, align 1
  br label %109

109:                                              ; preds = %105
  br label %110

110:                                              ; preds = %109
  store i32 -1, ptr %3, align 4
  br label %218

111:                                              ; No predecessors!
  br label %112

112:                                              ; preds = %111
  br label %113

113:                                              ; preds = %112, %87
  br label %114

114:                                              ; preds = %113, %77
  %115 = load ptr, ptr %2, align 8
  %116 = getelementptr inbounds %struct.H5B2_hdr_t, ptr %115, i32 0, i32 20
  %117 = load ptr, ptr %116, align 8
  %118 = load i32, ptr %5, align 4
  %119 = zext i32 %118 to i64
  %120 = getelementptr inbounds %struct.H5B2_node_info_t, ptr %117, i64 %119
  %121 = getelementptr inbounds %struct.H5B2_node_info_t, ptr %120, i32 0, i32 6
  %122 = load ptr, ptr %121, align 8
  %123 = icmp ne ptr %122, null
  br i1 %123, label %124, label %151

124:                                              ; preds = %114
  %125 = load ptr, ptr %2, align 8
  %126 = getelementptr inbounds %struct.H5B2_hdr_t, ptr %125, i32 0, i32 20
  %127 = load ptr, ptr %126, align 8
  %128 = load i32, ptr %5, align 4
  %129 = zext i32 %128 to i64
  %130 = getelementptr inbounds %struct.H5B2_node_info_t, ptr %127, i64 %129
  %131 = getelementptr inbounds %struct.H5B2_node_info_t, ptr %130, i32 0, i32 6
  %132 = load ptr, ptr %131, align 8
  %133 = call i32 @H5FL_fac_term(ptr noundef %132)
  %134 = icmp slt i32 %133, 0
  br i1 %134, label %135, label %150

135:                                              ; preds = %124
  br label %136

136:                                              ; preds = %135
  br label %137

137:                                              ; preds = %136
  br label %138

138:                                              ; preds = %137
  %139 = load i64, ptr @H5E_BTREE_g, align 8
  %140 = load i64, ptr @H5E_CANTRELEASE_g, align 8
  %141 = call i32 (ptr, ptr, i32, i64, i64, ptr, ...) @H5E_printf_stack(ptr noundef @.str.1, ptr noundef @__func__.H5B2__hdr_free, i32 noundef 606, i64 noundef %139, i64 noundef %140, ptr noundef @.str.25)
  br label %142

142:                                              ; preds = %138
  store i8 1, ptr %4, align 1
  %143 = load i8, ptr %4, align 1
  %144 = trunc i8 %143 to i1
  %145 = zext i1 %144 to i8
  store i8 %145, ptr %4, align 1
  br label %146

146:                                              ; preds = %142
  br label %147

147:                                              ; preds = %146
  store i32 -1, ptr %3, align 4
  br label %218

148:                                              ; No predecessors!
  br label %149

149:                                              ; preds = %148
  br label %150

150:                                              ; preds = %149, %124
  br label %151

151:                                              ; preds = %150, %114
  br label %152

152:                                              ; preds = %151
  %153 = load i32, ptr %5, align 4
  %154 = add i32 %153, 1
  store i32 %154, ptr %5, align 4
  br label %69

155:                                              ; preds = %69
  %156 = load ptr, ptr %2, align 8
  %157 = getelementptr inbounds %struct.H5B2_hdr_t, ptr %156, i32 0, i32 20
  %158 = load ptr, ptr %157, align 8
  %159 = call ptr @H5FL_seq_free(ptr noundef @H5_H5B2_node_info_t_seq_free_list, ptr noundef %158)
  %160 = load ptr, ptr %2, align 8
  %161 = getelementptr inbounds %struct.H5B2_hdr_t, ptr %160, i32 0, i32 20
  store ptr %159, ptr %161, align 8
  br label %162

162:                                              ; preds = %155, %63
  %163 = load ptr, ptr %2, align 8
  %164 = getelementptr inbounds %struct.H5B2_hdr_t, ptr %163, i32 0, i32 21
  %165 = load ptr, ptr %164, align 8
  %166 = icmp ne ptr %165, null
  br i1 %166, label %167, label %174

167:                                              ; preds = %162
  %168 = load ptr, ptr %2, align 8
  %169 = getelementptr inbounds %struct.H5B2_hdr_t, ptr %168, i32 0, i32 21
  %170 = load ptr, ptr %169, align 8
  %171 = call ptr @H5MM_xfree(ptr noundef %170)
  %172 = load ptr, ptr %2, align 8
  %173 = getelementptr inbounds %struct.H5B2_hdr_t, ptr %172, i32 0, i32 21
  store ptr %171, ptr %173, align 8
  br label %174

174:                                              ; preds = %167, %162
  %175 = load ptr, ptr %2, align 8
  %176 = getelementptr inbounds %struct.H5B2_hdr_t, ptr %175, i32 0, i32 22
  %177 = load ptr, ptr %176, align 8
  %178 = icmp ne ptr %177, null
  br i1 %178, label %179, label %186

179:                                              ; preds = %174
  %180 = load ptr, ptr %2, align 8
  %181 = getelementptr inbounds %struct.H5B2_hdr_t, ptr %180, i32 0, i32 22
  %182 = load ptr, ptr %181, align 8
  %183 = call ptr @H5MM_xfree(ptr noundef %182)
  %184 = load ptr, ptr %2, align 8
  %185 = getelementptr inbounds %struct.H5B2_hdr_t, ptr %184, i32 0, i32 22
  store ptr %183, ptr %185, align 8
  br label %186

186:                                              ; preds = %179, %174
  %187 = load ptr, ptr %2, align 8
  %188 = getelementptr inbounds %struct.H5B2_hdr_t, ptr %187, i32 0, i32 24
  %189 = load ptr, ptr %188, align 8
  %190 = icmp ne ptr %189, null
  br i1 %190, label %191, label %215

191:                                              ; preds = %186
  %192 = load ptr, ptr %2, align 8
  %193 = getelementptr inbounds %struct.H5B2_hdr_t, ptr %192, i32 0, i32 24
  %194 = load ptr, ptr %193, align 8
  %195 = call i32 @H5AC_proxy_entry_dest(ptr noundef %194)
  %196 = icmp slt i32 %195, 0
  br i1 %196, label %197, label %212

197:                                              ; preds = %191
  br label %198

198:                                              ; preds = %197
  br label %199

199:                                              ; preds = %198
  br label %200

200:                                              ; preds = %199
  %201 = load i64, ptr @H5E_BTREE_g, align 8
  %202 = load i64, ptr @H5E_CANTRELEASE_g, align 8
  %203 = call i32 (ptr, ptr, i32, i64, i64, ptr, ...) @H5E_printf_stack(ptr noundef @.str.1, ptr noundef @__func__.H5B2__hdr_free, i32 noundef 622, i64 noundef %201, i64 noundef %202, ptr noundef @.str.26)
  br label %204

204:                                              ; preds = %200
  store i8 1, ptr %4, align 1
  %205 = load i8, ptr %4, align 1
  %206 = trunc i8 %205 to i1
  %207 = zext i1 %206 to i8
  store i8 %207, ptr %4, align 1
  br label %208

208:                                              ; preds = %204
  br label %209

209:                                              ; preds = %208
  store i32 -1, ptr %3, align 4
  br label %218

210:                                              ; No predecessors!
  br label %211

211:                                              ; preds = %210
  br label %212

212:                                              ; preds = %211, %191
  %213 = load ptr, ptr %2, align 8
  %214 = getelementptr inbounds %struct.H5B2_hdr_t, ptr %213, i32 0, i32 24
  store ptr null, ptr %214, align 8
  br label %215

215:                                              ; preds = %212, %186
  %216 = load ptr, ptr %2, align 8
  %217 = call ptr @H5FL_reg_free(ptr noundef @H5_H5B2_hdr_t_reg_free_list, ptr noundef %216)
  store ptr %217, ptr %2, align 8
  br label %218

218:                                              ; preds = %215, %209, %147, %110, %33
  %219 = load i32, ptr %3, align 4
  ret i32 %219
}