; Function Attrs: nounwind uwtable
define range(i32 -1, 1) i32 @H5B2__hdr_free(ptr noundef %0) local_unnamed_addr #0 {
  %2 = getelementptr inbounds i8, ptr %0, i64 432
  %3 = load ptr, ptr %2, align 8
  %.not = icmp eq ptr %3, null
  br i1 %.not, label %16, label %4

4:                                                ; preds = %1
  %5 = getelementptr inbounds i8, ptr %0, i64 424
  %6 = load ptr, ptr %5, align 8
  %7 = getelementptr inbounds i8, ptr %6, i64 32
  %8 = load ptr, ptr %7, align 8
  %9 = tail call i32 %8(ptr noundef nonnull %3) #4
  %10 = icmp slt i32 %9, 0
  br i1 %10, label %11, label %15

11:                                               ; preds = %4
  %12 = load i64, ptr @H5E_BTREE_g, align 8
  %13 = load i64, ptr @H5E_CANTRELEASE_g, align 8
  %14 = tail call i32 (ptr, ptr, i32, i64, i64, ptr, ...) @H5E_printf_stack(ptr noundef nonnull @.str.1, ptr noundef nonnull @__func__.H5B2__hdr_free, i32 noundef 581, i64 noundef %12, i64 noundef %13, ptr noundef nonnull @.str.23) #4
  br label %81

15:                                               ; preds = %4
  store ptr null, ptr %2, align 8
  br label %16

16:                                               ; preds = %15, %1
  %17 = getelementptr inbounds i8, ptr %0, i64 352
  %18 = load ptr, ptr %17, align 8
  %.not47 = icmp eq ptr %18, null
  br i1 %.not47, label %21, label %19

19:                                               ; preds = %16
  %20 = tail call ptr @H5FL_blk_free(ptr noundef nonnull @H5_node_page_blk_free_list, ptr noundef nonnull %18) #4
  store ptr %20, ptr %17, align 8
  br label %21

21:                                               ; preds = %19, %16
  %22 = getelementptr inbounds i8, ptr %0, i64 360
  %23 = load ptr, ptr %22, align 8
  %.not48 = icmp eq ptr %23, null
  br i1 %.not48, label %26, label %24

24:                                               ; preds = %21
  %25 = tail call ptr @H5FL_seq_free(ptr noundef nonnull @H5_size_t_seq_free_list, ptr noundef nonnull %23) #4
  store ptr %25, ptr %22, align 8
  br label %26

26:                                               ; preds = %24, %21
  %27 = getelementptr inbounds i8, ptr %0, i64 368
  %28 = load ptr, ptr %27, align 8
  %.not49 = icmp eq ptr %28, null
  br i1 %.not49, label %58, label %.preheader

.preheader:                                       ; preds = %26
  %29 = getelementptr inbounds i8, ptr %0, i64 284
  br label %30

30:                                               ; preds = %.preheader, %52
  %indvars.iv = phi i64 [ 0, %.preheader ], [ %indvars.iv.next, %52 ]
  %31 = load ptr, ptr %27, align 8
  %32 = getelementptr inbounds %struct.H5B2_node_info_t, ptr %31, i64 %indvars.iv, i32 5
  %33 = load ptr, ptr %32, align 8
  %.not54 = icmp eq ptr %33, null
  br i1 %.not54, label %41, label %34

34:                                               ; preds = %30
  %35 = tail call i32 @H5FL_fac_term(ptr noundef nonnull %33) #4
  %36 = icmp slt i32 %35, 0
  br i1 %36, label %37, label %._crit_edge

._crit_edge:                                      ; preds = %34
  %.pre = load ptr, ptr %27, align 8
  br label %41

37:                                               ; preds = %34
  %38 = load i64, ptr @H5E_BTREE_g, align 8
  %39 = load i64, ptr @H5E_CANTRELEASE_g, align 8
  %40 = tail call i32 (ptr, ptr, i32, i64, i64, ptr, ...) @H5E_printf_stack(ptr noundef nonnull @.str.1, ptr noundef nonnull @__func__.H5B2__hdr_free, i32 noundef 602, i64 noundef %38, i64 noundef %39, ptr noundef nonnull @.str.24) #4
  br label %81

41:                                               ; preds = %._crit_edge, %30
  %42 = phi ptr [ %.pre, %._crit_edge ], [ %31, %30 ]
  %43 = getelementptr inbounds %struct.H5B2_node_info_t, ptr %42, i64 %indvars.iv, i32 6
  %44 = load ptr, ptr %43, align 8
  %.not55 = icmp eq ptr %44, null
  br i1 %.not55, label %52, label %45

45:                                               ; preds = %41
  %46 = tail call i32 @H5FL_fac_term(ptr noundef nonnull %44) #4
  %47 = icmp slt i32 %46, 0
  br i1 %47, label %48, label %52

48:                                               ; preds = %45
  %49 = load i64, ptr @H5E_BTREE_g, align 8
  %50 = load i64, ptr @H5E_CANTRELEASE_g, align 8
  %51 = tail call i32 (ptr, ptr, i32, i64, i64, ptr, ...) @H5E_printf_stack(ptr noundef nonnull @.str.1, ptr noundef nonnull @__func__.H5B2__hdr_free, i32 noundef 606, i64 noundef %49, i64 noundef %50, ptr noundef nonnull @.str.25) #4
  br label %81

52:                                               ; preds = %41, %45
  %indvars.iv.next = add nuw nsw i64 %indvars.iv, 1
  %53 = load i16, ptr %29, align 4
  %54 = zext i16 %53 to i64
  %.not50.not = icmp ult i64 %indvars.iv, %54
  br i1 %.not50.not, label %30, label %55

55:                                               ; preds = %52
  %56 = load ptr, ptr %27, align 8
  %57 = tail call ptr @H5FL_seq_free(ptr noundef nonnull @H5_H5B2_node_info_t_seq_free_list, ptr noundef %56) #4
  store ptr %57, ptr %27, align 8
  br label %58

58:                                               ; preds = %55, %26
  %59 = getelementptr inbounds i8, ptr %0, i64 376
  %60 = load ptr, ptr %59, align 8
  %.not51 = icmp eq ptr %60, null
  br i1 %.not51, label %63, label %61

61:                                               ; preds = %58
  %62 = tail call ptr @H5MM_xfree(ptr noundef nonnull %60) #4
  store ptr %62, ptr %59, align 8
  br label %63

63:                                               ; preds = %61, %58
  %64 = getelementptr inbounds i8, ptr %0, i64 384
  %65 = load ptr, ptr %64, align 8
  %.not52 = icmp eq ptr %65, null
  br i1 %.not52, label %68, label %66

66:                                               ; preds = %63
  %67 = tail call ptr @H5MM_xfree(ptr noundef nonnull %65) #4
  store ptr %67, ptr %64, align 8
  br label %68

68:                                               ; preds = %66, %63
  %69 = getelementptr inbounds i8, ptr %0, i64 400
  %70 = load ptr, ptr %69, align 8
  %.not53 = icmp eq ptr %70, null
  br i1 %.not53, label %79, label %71

71:                                               ; preds = %68
  %72 = tail call i32 @H5AC_proxy_entry_dest(ptr noundef nonnull %70) #4
  %73 = icmp slt i32 %72, 0
  br i1 %73, label %74, label %78

74:                                               ; preds = %71
  %75 = load i64, ptr @H5E_BTREE_g, align 8
  %76 = load i64, ptr @H5E_CANTRELEASE_g, align 8
  %77 = tail call i32 (ptr, ptr, i32, i64, i64, ptr, ...) @H5E_printf_stack(ptr noundef nonnull @.str.1, ptr noundef nonnull @__func__.H5B2__hdr_free, i32 noundef 622, i64 noundef %75, i64 noundef %76, ptr noundef nonnull @.str.26) #4
  br label %81

78:                                               ; preds = %71
  store ptr null, ptr %69, align 8
  br label %79

79:                                               ; preds = %78, %68
  %80 = tail call ptr @H5FL_reg_free(ptr noundef nonnull @H5_H5B2_hdr_t_reg_free_list, ptr noundef nonnull %0) #4
  br label %81

81:                                               ; preds = %79, %74, %48, %37, %11
  %.038 = phi i32 [ -1, %11 ], [ -1, %37 ], [ -1, %48 ], [ -1, %74 ], [ 0, %79 ]
  ret i32 %.038
}